target datalayout = "e-m:e-p270:32:32-p271:32:32-p272:64:64-i64:64-i128:128-f80:128-n8:16:32:64-S128"
target triple = "x86_64-pc-linux-gnu"

%"class.std::__cxx11::basic_string" = type { %"struct.std::__cxx11::basic_string<char>::_Alloc_hider", i64, %union.anon }
%"struct.std::__cxx11::basic_string<char>::_Alloc_hider" = type { ptr }
%union.anon = type { i64, [8 x i8] }
%"class.cv::face::FacemarkKazemiImpl" = type { %"class.cv::face::FacemarkKazemi", %"struct.cv::face::FacemarkKazemi::Params", float, float, float, float, i8, %"class.std::vector", %"class.std::vector.3", %"class.std::vector.8", ptr, ptr }
%"class.cv::face::FacemarkKazemi" = type { %"class.cv::face::Facemark" }
%"class.cv::face::Facemark" = type { %"class.cv::Algorithm" }
%"class.cv::Algorithm" = type { ptr }
%"struct.cv::face::FacemarkKazemi::Params" = type { i64, i64, i64, float, i64, i64, float, i64, %"class.std::__cxx11::basic_string" }
%"class.std::vector" = type { %"struct.std::_Vector_base" }
%"struct.std::_Vector_base" = type { %"struct.std::_Vector_base<cv::Point_<float>, std::allocator<cv::Point_<float>>>::_Vector_impl" }
%"struct.std::_Vector_base<cv::Point_<float>, std::allocator<cv::Point_<float>>>::_Vector_impl" = type { %"struct.std::_Vector_base<cv::Point_<float>, std::allocator<cv::Point_<float>>>::_Vector_impl_data" }
%"struct.std::_Vector_base<cv::Point_<float>, std::allocator<cv::Point_<float>>>::_Vector_impl_data" = type { ptr, ptr, ptr }
%"class.std::vector.3" = type { %"struct.std::_Vector_base.4" }
%"struct.std::_Vector_base.4" = type { %"struct.std::_Vector_base<std::vector<cv::face::regtree>, std::allocator<std::vector<cv::face::regtree>>>::_Vector_impl" }
%"struct.std::_Vector_base<std::vector<cv::face::regtree>, std::allocator<std::vector<cv::face::regtree>>>::_Vector_impl" = type { %"struct.std::_Vector_base<std::vector<cv::face::regtree>, std::allocator<std::vector<cv::face::regtree>>>::_Vector_impl_data" }
%"struct.std::_Vector_base<std::vector<cv::face::regtree>, std::allocator<std::vector<cv::face::regtree>>>::_Vector_impl_data" = type { ptr, ptr, ptr }
%"class.std::vector.8" = type { %"struct.std::_Vector_base.9" }
%"struct.std::_Vector_base.9" = type { %"struct.std::_Vector_base<std::vector<cv::Point_<float>>, std::allocator<std::vector<cv::Point_<float>>>>::_Vector_impl" }
%"struct.std::_Vector_base<std::vector<cv::Point_<float>>, std::allocator<std::vector<cv::Point_<float>>>>::_Vector_impl" = type { %"struct.std::_Vector_base<std::vector<cv::Point_<float>>, std::allocator<std::vector<cv::Point_<float>>>>::_Vector_impl_data" }
%"struct.std::_Vector_base<std::vector<cv::Point_<float>>, std::allocator<std::vector<cv::Point_<float>>>>::_Vector_impl_data" = type { ptr, ptr, ptr }
%"class.cv::Point_" = type { float, float }

; Function Attrs: mustprogress nounwind uwtable
define linkonce_odr hidden noundef i64 @_ZNKSt6vectorIN2cv6Point_IfEESaIS2_EE4sizeEv(ptr noundef nonnull align 8 dereferenceable(24) %0) #7 comdat align 2 {
  %2 = alloca ptr, align 8
  store ptr %0, ptr %2, align 8, !tbaa !72
  %3 = load ptr, ptr %2, align 8
  %4 = getelementptr inbounds nuw %"struct.std::_Vector_base", ptr %3, i32 0, i32 0
  %5 = getelementptr inbounds nuw %"struct.std::_Vector_base<cv::Point_<float>, std::allocator<cv::Point_<float>>>::_Vector_impl_data", ptr %4, i32 0, i32 1
  %6 = load ptr, ptr %5, align 8, !tbaa !76
  %7 = getelementptr inbounds nuw %"struct.std::_Vector_base", ptr %3, i32 0, i32 0
  %8 = getelementptr inbounds nuw %"struct.std::_Vector_base<cv::Point_<float>, std::allocator<cv::Point_<float>>>::_Vector_impl_data", ptr %7, i32 0, i32 0
  %9 = load ptr, ptr %8, align 8, !tbaa !82
  %10 = ptrtoint ptr %6 to i64
  %11 = ptrtoint ptr %9 to i64
  %12 = sub i64 %10, %11
  %13 = sdiv exact i64 %12, 8
  ret i64 %13
}

; Function Attrs: mustprogress nounwind uwtable
define linkonce_odr hidden noundef nonnull align 4 dereferenceable(8) ptr @_ZNSt6vectorIN2cv6Point_IfEESaIS2_EEixEm(ptr noundef nonnull align 8 dereferenceable(24) %0, i64 noundef %1) #7 comdat align 2 {
  %3 = alloca ptr, align 8
  %4 = alloca i64, align 8
  store ptr %0, ptr %3, align 8, !tbaa !72
  store i64 %1, ptr %4, align 8, !tbaa !60
  %5 = load ptr, ptr %3, align 8
  %6 = getelementptr inbounds nuw %"struct.std::_Vector_base", ptr %5, i32 0, i32 0
  %7 = getelementptr inbounds nuw %"struct.std::_Vector_base<cv::Point_<float>, std::allocator<cv::Point_<float>>>::_Vector_impl_data", ptr %6, i32 0, i32 0
  %8 = load ptr, ptr %7, align 8, !tbaa !82
  %9 = load i64, ptr %4, align 8, !tbaa !60
  %10 = getelementptr inbounds nuw %"class.cv::Point_", ptr %8, i64 %9
  ret ptr %10
}

; Function Attrs: mustprogress nounwind uwtable
define linkonce_odr hidden noundef nonnull align 8 dereferenceable(24) ptr @_ZNSt6vectorIS_IN2cv6Point_IfEESaIS2_EESaIS4_EEixEm(ptr noundef nonnull align 8 dereferenceable(24) %0, i64 noundef %1) #7 comdat align 2 {
  %3 = alloca ptr, align 8
  %4 = alloca i64, align 8
  store ptr %0, ptr %3, align 8, !tbaa !78
  store i64 %1, ptr %4, align 8, !tbaa !60
  %5 = load ptr, ptr %3, align 8
  %6 = getelementptr inbounds nuw %"struct.std::_Vector_base.9", ptr %5, i32 0, i32 0
  %7 = getelementptr inbounds nuw %"struct.std::_Vector_base<std::vector<cv::Point_<float>>, std::allocator<std::vector<cv::Point_<float>>>>::_Vector_impl_data", ptr %6, i32 0, i32 0
  %8 = load ptr, ptr %7, align 8, !tbaa !156
  %9 = load i64, ptr %4, align 8, !tbaa !60
  %10 = getelementptr inbounds nuw %"class.std::vector", ptr %8, i64 %9
  ret ptr %10
}

; Function Attrs: mustprogress uwtable
define hidden void @_ZN2cv4face18FacemarkKazemiImpl11writePixelsERSt14basic_ofstreamIcSt11char_traitsIcEEi(ptr noundef nonnull align 8 dereferenceable(216) %0, ptr noundef nonnull align 8 dereferenceable(248) %1, i32 noundef %2) #4 align 2 {
  %4 = alloca ptr, align 8
  %5 = alloca ptr, align 8
  %6 = alloca i32, align 4
  store ptr %0, ptr %4, align 8, !tbaa !3
  store ptr %1, ptr %5, align 8, !tbaa !172
  store i32 %2, ptr %6, align 4, !tbaa !10
  %7 = load ptr, ptr %4, align 8
  %8 = load ptr, ptr %5, align 8, !tbaa !172
  %9 = getelementptr inbounds nuw %"class.cv::face::FacemarkKazemiImpl", ptr %7, i32 0, i32 9
  %10 = load i32, ptr %6, align 4, !tbaa !10
  %11 = sext i32 %10 to i64
  %12 = call noundef nonnull align 8 dereferenceable(24) ptr @_ZNSt6vectorIS_IN2cv6Point_IfEESaIS2_EESaIS4_EEixEm(ptr noundef nonnull align 8 dereferenceable(24) %9, i64 noundef %11) #3
  %13 = call noundef nonnull align 4 dereferenceable(8) ptr @_ZNSt6vectorIN2cv6Point_IfEESaIS2_EEixEm(ptr noundef nonnull align 8 dereferenceable(24) %12, i64 noundef 0) #3
  %14 = getelementptr inbounds nuw %"class.cv::face::FacemarkKazemiImpl", ptr %7, i32 0, i32 9
  %15 = load i32, ptr %6, align 4, !tbaa !10
  %16 = sext i32 %15 to i64
  %17 = call noundef nonnull align 8 dereferenceable(24) ptr @_ZNSt6vectorIS_IN2cv6Point_IfEESaIS2_EESaIS4_EEixEm(ptr noundef nonnull align 8 dereferenceable(24) %14, i64 noundef %16) #3
  %18 = call noundef i64 @_ZNKSt6vectorIN2cv6Point_IfEESaIS2_EE4sizeEv(ptr noundef nonnull align 8 dereferenceable(24) %17) #3
  %19 = mul i64 %18, 8
  %20 = call noundef nonnull align 8 dereferenceable(8) ptr @_ZNSo5writeEPKcl(ptr noundef nonnull align 8 dereferenceable(8) %8, ptr noundef %13, i64 noundef %19)
  ret void
}